target datalayout = "e-m:e-p270:32:32-p271:32:32-p272:64:64-i64:64-i128:128-f80:128-n8:16:32:64-S128"
target triple = "x86_64-pc-linux-gnu"

%struct.H5O_storage_t = type { i32, %union.anon.3 }
%union.anon.3 = type { %struct.H5O_storage_virtual_t }
%struct.H5O_storage_virtual_t = type { %struct.H5HG_t, i64, ptr, i64, [32 x i64], i32, i64, i64, i64, i8 }
%struct.H5HG_t = type { i64, i64 }

@H5D_init_g = external global i8, align 1
@H5_libterm_g = external global i8, align 1
@.str.1 = private unnamed_addr constant [104 x i8] c"generated/home/dtcxzyw/WorkSpace/Projects/compilers/llvm-opt-benchmark/bench/hdf5/hdf5/src/H5Dvirtual.c\00", align 1
@H5E_DATASET_g = external global i64, align 8
@__func__.H5D__virtual_delete = private unnamed_addr constant [20 x i8] c"H5D__virtual_delete\00", align 1
@H5E_CANTREMOVE_g = external global i64, align 8
@.str.41 = private unnamed_addr constant [29 x i8] c"unable to remove heap object\00", align 1

; Function Attrs: nounwind uwtable
define i32 @H5D__virtual_delete(ptr noundef %0, ptr noundef %1) #0 {
  %3 = alloca ptr, align 8
  %4 = alloca ptr, align 8
  %5 = alloca i32, align 4
  %6 = alloca i8, align 1
  store ptr %0, ptr %3, align 8, !tbaa !3
  store ptr %1, ptr %4, align 8, !tbaa !74
  call void @llvm.lifetime.start.p0(i64 4, ptr %5) #10
  store i32 0, ptr %5, align 4, !tbaa !12
  call void @llvm.lifetime.start.p0(i64 1, ptr %6) #10
  store i8 0, ptr %6, align 1, !tbaa !14
  %7 = load i8, ptr @H5D_init_g, align 1, !tbaa !14, !range !16, !noundef !17
  %8 = trunc i8 %7 to i1
  br i1 %8, label %13, label %9

9:                                                ; preds = %2
  %10 = load i8, ptr @H5_libterm_g, align 1, !tbaa !14, !range !16, !noundef !17
  %11 = trunc i8 %10 to i1
  %12 = xor i1 %11, true
  br label %13

13:                                               ; preds = %9, %2
  %14 = phi i1 [ true, %2 ], [ %12, %9 ]
  %15 = xor i1 %14, true
  %16 = xor i1 %15, true
  %17 = zext i1 %16 to i32
  %18 = sext i32 %17 to i64
  %19 = call i64 @llvm.expect.i64(i64 %18, i64 1)
  %20 = icmp ne i64 %19, 0
  br i1 %20, label %21, label %65

21:                                               ; preds = %13
  %22 = load ptr, ptr %4, align 8, !tbaa !74
  %23 = getelementptr inbounds nuw %struct.H5O_storage_t, ptr %22, i32 0, i32 1
  %24 = getelementptr inbounds nuw %struct.H5O_storage_virtual_t, ptr %23, i32 0, i32 0
  %25 = getelementptr inbounds nuw %struct.H5HG_t, ptr %24, i32 0, i32 0
  %26 = load i64, ptr %25, align 8, !tbaa !120
  %27 = icmp ne i64 %26, -1
  br i1 %27, label %28, label %55

28:                                               ; preds = %21
  %29 = load ptr, ptr %3, align 8, !tbaa !3
  %30 = load ptr, ptr %4, align 8, !tbaa !74
  %31 = getelementptr inbounds nuw %struct.H5O_storage_t, ptr %30, i32 0, i32 1
  %32 = getelementptr inbounds nuw %struct.H5O_storage_virtual_t, ptr %31, i32 0, i32 0
  %33 = call i32 @H5HG_remove(ptr noundef %29, ptr noundef %32)
  %34 = icmp slt i32 %33, 0
  br i1 %34, label %35, label %54

35:                                               ; preds = %28
  br label %36

36:                                               ; preds = %35
  br label %37

37:                                               ; preds = %36
  br label %38

38:                                               ; preds = %37
  %39 = load i64, ptr @H5E_DATASET_g, align 8, !tbaa !10
  %40 = load i64, ptr @H5E_CANTREMOVE_g, align 8, !tbaa !10
  %41 = call i32 (ptr, ptr, i32, i64, i64, ptr, ...) @H5E_printf_stack(ptr noundef @.str.1, ptr noundef @__func__.H5D__virtual_delete, i32 noundef 833, i64 noundef %39, i64 noundef %40, ptr noundef @.str.41)
  br label %42

42:                                               ; preds = %38
  br label %43

43:                                               ; preds = %42
  store i8 1, ptr %6, align 1, !tbaa !14
  %44 = load i8, ptr %6, align 1, !tbaa !14, !range !16, !noundef !17
  %45 = trunc i8 %44 to i1
  %46 = zext i1 %45 to i8
  store i8 %46, ptr %6, align 1, !tbaa !14
  br label %47

47:                                               ; preds = %43
  br label %48

48:                                               ; preds = %47
  br label %49

49:                                               ; preds = %48
  store i32 -1, ptr %5, align 4, !tbaa !12
  br label %64

50:                                               ; No predecessors!
  br label %51

51:                                               ; preds = %50
  br label %52

52:                                               ; preds = %51
  br label %53

53:                                               ; preds = %52
  br label %54

54:                                               ; preds = %53, %28
  br label %55

55:                                               ; preds = %54, %21
  %56 = load ptr, ptr %4, align 8, !tbaa !74
  %57 = getelementptr inbounds nuw %struct.H5O_storage_t, ptr %56, i32 0, i32 1
  %58 = getelementptr inbounds nuw %struct.H5O_storage_virtual_t, ptr %57, i32 0, i32 0
  %59 = getelementptr inbounds nuw %struct.H5HG_t, ptr %58, i32 0, i32 0
  store i64 -1, ptr %59, align 8, !tbaa !120
  %60 = load ptr, ptr %4, align 8, !tbaa !74
  %61 = getelementptr inbounds nuw %struct.H5O_storage_t, ptr %60, i32 0, i32 1
  %62 = getelementptr inbounds nuw %struct.H5O_storage_virtual_t, ptr %61, i32 0, i32 0
  %63 = getelementptr inbounds nuw %struct.H5HG_t, ptr %62, i32 0, i32 1
  store i64 0, ptr %63, align 8, !tbaa !120
  br label %64

64:                                               ; preds = %55, %49
  br label %65

65:                                               ; preds = %64, %13
  %66 = load i32, ptr %5, align 4, !tbaa !12
  call void @llvm.lifetime.end.p0(i64 1, ptr %6) #10
  call void @llvm.lifetime.end.p0(i64 4, ptr %5) #10
  ret i32 %66
}