; Function Attrs: nounwind uwtable
define range(i32 -1, 1) i32 @H5D__virtual_delete(ptr noundef %0, ptr noundef %1) local_unnamed_addr #0 {
  %3 = load i8, ptr @H5D_init_g, align 1, !tbaa !3, !range !7, !noundef !8
  %4 = trunc nuw i8 %3 to i1
  %5 = load i8, ptr @H5_libterm_g, align 1, !range !7
  %6 = trunc nuw i8 %5 to i1
  %7 = xor i1 %6, true
  %8 = select i1 %4, i1 true, i1 %7
  br i1 %8, label %9, label %21, !prof !9

9:                                                ; preds = %2
  %10 = getelementptr inbounds nuw i8, ptr %1, i64 8
  %11 = load i64, ptr %10, align 8, !tbaa !108
  %.not = icmp eq i64 %11, -1
  br i1 %.not, label %19, label %12

12:                                               ; preds = %9
  %13 = tail call i32 @H5HG_remove(ptr noundef %0, ptr noundef nonnull %10) #14
  %14 = icmp slt i32 %13, 0
  br i1 %14, label %15, label %19

15:                                               ; preds = %12
  %16 = load i64, ptr @H5E_DATASET_g, align 8, !tbaa !24
  %17 = load i64, ptr @H5E_CANTREMOVE_g, align 8, !tbaa !24
  %18 = tail call i32 (ptr, ptr, i32, i64, i64, ptr, ...) @H5E_printf_stack(ptr noundef nonnull @.str.1, ptr noundef nonnull @__func__.H5D__virtual_delete, i32 noundef 833, i64 noundef %16, i64 noundef %17, ptr noundef nonnull @.str.41) #14
  br label %21

19:                                               ; preds = %12, %9
  store i64 -1, ptr %10, align 8, !tbaa !108
  %20 = getelementptr inbounds nuw i8, ptr %1, i64 16
  store i64 0, ptr %20, align 8, !tbaa !108
  br label %21

21:                                               ; preds = %15, %19, %2
  %.0 = phi i32 [ -1, %15 ], [ 0, %19 ], [ 0, %2 ]
  ret i32 %.0
}